; Function Attrs: nounwind sspstrong uwtable
define internal noalias ptr @machine_get_nvdimm_persistence(ptr noundef %obj, ptr readnone captures(none) %errp) #0 {
entry:
  %call.i = tail call ptr @object_dynamic_cast_assert(ptr noundef %obj, ptr noundef nonnull @.str.225, ptr noundef nonnull @.str.226, i32 noundef 23, ptr noundef nonnull @__func__.MACHINE) #16
  %nvdimms_state = getelementptr inbounds nuw i8, ptr %call.i, i64 328
  %0 = load ptr, ptr %nvdimms_state, align 8
  %persistence_string = getelementptr inbounds nuw i8, ptr %0, i64 312
  %1 = load ptr, ptr %persistence_string, align 8
  %call1 = tail call noalias ptr @g_strdup(ptr noundef %1) #16
  ret ptr %call1
}